; Function Attrs: mustprogress nofree norecurse nosync nounwind willreturn memory(argmem: readwrite) uwtable
define dso_local noundef zeroext i1 @_ZN5clang8DeclSpec16SetTypeSpecErrorEv(ptr nocapture noundef nonnull align 8 dereferenceable(360) %0) local_unnamed_addr #0 align 2 {
  %2 = load i64, ptr %0, align 8
  %3 = and i64 %2, -4714497
  %4 = or disjoint i64 %3, 282624
  store i64 %4, ptr %0, align 8
  %5 = getelementptr inbounds nuw i8, ptr %0, i64 256
  store i32 0, ptr %5, align 8
  %6 = getelementptr inbounds nuw i8, ptr %0, i64 272
  store i32 0, ptr %6, align 8
  ret i1 false
}